; ModuleID = '36/727.c'
source_filename = "36/727.c"
target datalayout = "e-m:e-p270:32:32-p271:32:32-p272:64:64-i64:64-f80:128-n8:16:32:64-S128"
target triple = "x86_64-pc-linux-gnu"

@.str = private unnamed_addr constant [6 x i8] c"%s %s\00", align 1
@.str.1 = private unnamed_addr constant [3 x i8] c"NO\00", align 1
@.str.2 = private unnamed_addr constant [4 x i8] c"YES\00", align 1

; Function Attrs: noinline nounwind uwtable
define dso_local void @main() #0 {
  %1 = alloca [10 x i8], align 1
  %2 = alloca [10 x i8], align 1
  %3 = alloca i8, align 1
  %4 = alloca i32, align 4
  %5 = alloca i32, align 4
  %6 = alloca i32, align 4
  %7 = alloca i32, align 4
  %8 = alloca i32, align 4
  %9 = getelementptr inbounds [10 x i8], [10 x i8]* %1, i64 0, i64 0
  %10 = getelementptr inbounds [10 x i8], [10 x i8]* %2, i64 0, i64 0
  %11 = call i32 (i8*, ...) @__isoc99_scanf(i8* getelementptr inbounds ([6 x i8], [6 x i8]* @.str, i64 0, i64 0), i8* %9, i8* %10)
  %12 = getelementptr inbounds [10 x i8], [10 x i8]* %1, i64 0, i64 0
  %13 = call i64 @strlen(i8* %12) #3
  %14 = trunc i64 %13 to i32
  store i32 %14, i32* %4, align 4
  %15 = getelementptr inbounds [10 x i8], [10 x i8]* %2, i64 0, i64 0
  %16 = call i64 @strlen(i8* %15) #3
  %17 = trunc i64 %16 to i32
  store i32 %17, i32* %5, align 4
  %18 = load i32, i32* %4, align 4
  %19 = load i32, i32* %5, align 4
  %20 = icmp ne i32 %18, %19
  br i1 %20, label %21, label %23

21:                                               ; preds = %0
  %22 = call i32 (i8*, ...) @printf(i8* getelementptr inbounds ([3 x i8], [3 x i8]* @.str.1, i64 0, i64 0))
  br label %137

23:                                               ; preds = %0
  store i32 0, i32* %6, align 4
  br label %24

24:                                               ; preds = %72, %23
  %25 = load i32, i32* %6, align 4
  %26 = load i32, i32* %4, align 4
  %27 = sub nsw i32 %26, 1
  %28 = icmp sle i32 %25, %27
  br i1 %28, label %29, label %75

29:                                               ; preds = %24
  store i32 0, i32* %7, align 4
  br label %30

30:                                               ; preds = %68, %29
  %31 = load i32, i32* %7, align 4
  %32 = load i32, i32* %4, align 4
  %33 = load i32, i32* %6, align 4
  %34 = sub nsw i32 %32, %33
  %35 = icmp slt i32 %31, %34
  br i1 %35, label %36, label %71

36:                                               ; preds = %30
  %37 = load i32, i32* %7, align 4
  %38 = sext i32 %37 to i64
  %39 = getelementptr inbounds [10 x i8], [10 x i8]* %1, i64 0, i64 %38
  %40 = load i8, i8* %39, align 1
  %41 = sext i8 %40 to i32
  %42 = load i32, i32* %7, align 4
  %43 = add nsw i32 %42, 1
  %44 = sext i32 %43 to i64
  %45 = getelementptr inbounds [10 x i8], [10 x i8]* %1, i64 0, i64 %44
  %46 = load i8, i8* %45, align 1
  %47 = sext i8 %46 to i32
  %48 = icmp sle i32 %41, %47
  br i1 %48, label %49, label %67

49:                                               ; preds = %36
  %50 = load i32, i32* %7, align 4
  %51 = sext i32 %50 to i64
  %52 = getelementptr inbounds [10 x i8], [10 x i8]* %1, i64 0, i64 %51
  %53 = load i8, i8* %52, align 1
  store i8 %53, i8* %3, align 1
  %54 = load i32, i32* %7, align 4
  %55 = add nsw i32 %54, 1
  %56 = sext i32 %55 to i64
  %57 = getelementptr inbounds [10 x i8], [10 x i8]* %1, i64 0, i64 %56
  %58 = load i8, i8* %57, align 1
  %59 = load i32, i32* %7, align 4
  %60 = sext i32 %59 to i64
  %61 = getelementptr inbounds [10 x i8], [10 x i8]* %1, i64 0, i64 %60
  store i8 %58, i8* %61, align 1
  %62 = load i8, i8* %3, align 1
  %63 = load i32, i32* %7, align 4
  %64 = add nsw i32 %63, 1
  %65 = sext i32 %64 to i64
  %66 = getelementptr inbounds [10 x i8], [10 x i8]* %1, i64 0, i64 %65
  store i8 %62, i8* %66, align 1
  br label %67

67:                                               ; preds = %49, %36
  br label %68

68:                                               ; preds = %67
  %69 = load i32, i32* %7, align 4
  %70 = add nsw i32 %69, 1
  store i32 %70, i32* %7, align 4
  br label %30

71:                                               ; preds = %30
  br label %72

72:                                               ; preds = %71
  %73 = load i32, i32* %6, align 4
  %74 = add nsw i32 %73, 1
  store i32 %74, i32* %6, align 4
  br label %24

75:                                               ; preds = %24
  store i32 0, i32* %6, align 4
  br label %76

76:                                               ; preds = %124, %75
  %77 = load i32, i32* %6, align 4
  %78 = load i32, i32* %5, align 4
  %79 = sub nsw i32 %78, 1
  %80 = icmp sle i32 %77, %79
  br i1 %80, label %81, label %127

81:                                               ; preds = %76
  store i32 0, i32* %7, align 4
  br label %82

82:                                               ; preds = %120, %81
  %83 = load i32, i32* %7, align 4
  %84 = load i32, i32* %5, align 4
  %85 = load i32, i32* %6, align 4
  %86 = sub nsw i32 %84, %85
  %87 = icmp slt i32 %83, %86
  br i1 %87, label %88, label %123

88:                                               ; preds = %82
  %89 = load i32, i32* %7, align 4
  %90 = sext i32 %89 to i64
  %91 = getelementptr inbounds [10 x i8], [10 x i8]* %2, i64 0, i64 %90
  %92 = load i8, i8* %91, align 1
  %93 = sext i8 %92 to i32
  %94 = load i32, i32* %7, align 4
  %95 = add nsw i32 %94, 1
  %96 = sext i32 %95 to i64
  %97 = getelementptr inbounds [10 x i8], [10 x i8]* %2, i64 0, i64 %96
  %98 = load i8, i8* %97, align 1
  %99 = sext i8 %98 to i32
  %100 = icmp sle i32 %93, %99
  br i1 %100, label %101, label %119

101:                                              ; preds = %88
  %102 = load i32, i32* %7, align 4
  %103 = sext i32 %102 to i64
  %104 = getelementptr inbounds [10 x i8], [10 x i8]* %2, i64 0, i64 %103
  %105 = load i8, i8* %104, align 1
  store i8 %105, i8* %3, align 1
  %106 = load i32, i32* %7, align 4
  %107 = add nsw i32 %106, 1
  %108 = sext i32 %107 to i64
  %109 = getelementptr inbounds [10 x i8], [10 x i8]* %2, i64 0, i64 %108
  %110 = load i8, i8* %109, align 1
  %111 = load i32, i32* %7, align 4
  %112 = sext i32 %111 to i64
  %113 = getelementptr inbounds [10 x i8], [10 x i8]* %2, i64 0, i64 %112
  store i8 %110, i8* %113, align 1
  %114 = load i8, i8* %3, align 1
  %115 = load i32, i32* %7, align 4
  %116 = add nsw i32 %115, 1
  %117 = sext i32 %116 to i64
  %118 = getelementptr inbounds [10 x i8], [10 x i8]* %2, i64 0, i64 %117
  store i8 %114, i8* %118, align 1
  br label %119

119:                                              ; preds = %101, %88
  br label %120

120:                                              ; preds = %119
  %121 = load i32, i32* %7, align 4
  %122 = add nsw i32 %121, 1
  store i32 %122, i32* %7, align 4
  br label %82

123:                                              ; preds = %82
  br label %124

124:                                              ; preds = %123
  %125 = load i32, i32* %6, align 4
  %126 = add nsw i32 %125, 1
  store i32 %126, i32* %6, align 4
  br label %76

127:                                              ; preds = %76
  %128 = getelementptr inbounds [10 x i8], [10 x i8]* %1, i64 0, i64 0
  %129 = getelementptr inbounds [10 x i8], [10 x i8]* %2, i64 0, i64 0
  %130 = call i32 @strcmp(i8* %128, i8* %129) #3
  %131 = icmp eq i32 %130, 0
  br i1 %131, label %132, label %134

132:                                              ; preds = %127
  %133 = call i32 (i8*, ...) @printf(i8* getelementptr inbounds ([4 x i8], [4 x i8]* @.str.2, i64 0, i64 0))
  br label %136

134:                                              ; preds = %127
  %135 = call i32 (i8*, ...) @printf(i8* getelementptr inbounds ([3 x i8], [3 x i8]* @.str.1, i64 0, i64 0))
  br label %136

136:                                              ; preds = %134, %132
  br label %137

137:                                              ; preds = %136, %21
  ret void
}

declare dso_local i32 @__isoc99_scanf(i8*, ...) #1

; Function Attrs: nounwind readonly
declare dso_local i64 @strlen(i8*) #2

declare dso_local i32 @printf(i8*, ...) #1

; Function Attrs: nounwind readonly
declare dso_local i32 @strcmp(i8*, i8*) #2


!llvm.module.flags = !{!0}
!llvm.ident = !{!1}

!0 = !{i32 1, !"wchar_size", i32 4}
!1 = !{!"clang version 10.0.0-4ubuntu1 "}
